target datalayout = "e-m:e-p270:32:32-p271:32:32-p272:64:64-i64:64-i128:128-f80:128-n8:16:32:64-S128"
target triple = "x86_64-pc-linux-gnu"

%union.pthread_mutex_t = type { %struct.__pthread_mutex_s }
%struct.__pthread_mutex_s = type { i32, i32, i32, i32, i32, i16, i16, %struct.__pthread_internal_list }
%struct.__pthread_internal_list = type { ptr, ptr }

@cache_mutex = internal global %union.pthread_mutex_t zeroinitializer, align 8
@.str = private unnamed_addr constant [29 x i8] c"%s: pthread_mutex_lock(): %m\00", align 1
@__func__.bit_cache_init = private unnamed_addr constant [15 x i8] c"bit_cache_init\00", align 1
@cached_bitstr_len = internal global i64 0, align 8
@.str.1 = private unnamed_addr constant [32 x i8] c"%s: cannot change size once set\00", align 1
@.str.2 = private unnamed_addr constant [31 x i8] c"%s: pthread_mutex_unlock(): %m\00", align 1

; Function Attrs: nounwind uwtable
define dso_local void @bit_cache_init(i64 noundef %0) #0 {
  %2 = alloca i64, align 8
  %3 = alloca i32, align 4
  %4 = alloca i32, align 4
  store i64 %0, ptr %2, align 8
  br label %5

5:                                                ; preds = %1
  call void @llvm.lifetime.start.p0(i64 4, ptr %3) #12
  %6 = call i32 @pthread_mutex_lock(ptr noundef @cache_mutex) #12
  store i32 %6, ptr %3, align 4
  %7 = load i32, ptr %3, align 4
  %8 = icmp ne i32 %7, 0
  br i1 %8, label %9, label %12

9:                                                ; preds = %5
  %10 = load i32, ptr %3, align 4
  %11 = call ptr @__errno_location() #14
  store i32 %10, ptr %11, align 4
  call void (ptr, ...) @fatal_abort(ptr noundef @.str, ptr noundef @__func__.bit_cache_init) #15
  unreachable

12:                                               ; preds = %5
  call void @llvm.lifetime.end.p0(i64 4, ptr %3) #12
  br label %13

13:                                               ; preds = %12
  %14 = load i64, ptr @cached_bitstr_len, align 8
  %15 = icmp ne i64 %14, 0
  br i1 %15, label %16, label %17

16:                                               ; preds = %13
  call void (ptr, ...) @fatal_abort(ptr noundef @.str.1, ptr noundef @__func__.bit_cache_init) #15
  unreachable

17:                                               ; preds = %13
  %18 = load i64, ptr %2, align 8
  store i64 %18, ptr @cached_bitstr_len, align 8
  br label %19

19:                                               ; preds = %17
  call void @llvm.lifetime.start.p0(i64 4, ptr %4) #12
  %20 = call i32 @pthread_mutex_unlock(ptr noundef @cache_mutex) #12
  store i32 %20, ptr %4, align 4
  %21 = load i32, ptr %4, align 4
  %22 = icmp ne i32 %21, 0
  br i1 %22, label %23, label %26

23:                                               ; preds = %19
  %24 = load i32, ptr %4, align 4
  %25 = call ptr @__errno_location() #14
  store i32 %24, ptr %25, align 4
  call void (ptr, ...) @fatal_abort(ptr noundef @.str.2, ptr noundef @__func__.bit_cache_init) #15
  unreachable

26:                                               ; preds = %19
  call void @llvm.lifetime.end.p0(i64 4, ptr %4) #12
  br label %27

27:                                               ; preds = %26
  ret void
}