; Function Attrs: nounwind uwtable
define dso_local void @bit_cache_init(i64 noundef %0) local_unnamed_addr #0 {
  %2 = tail call i32 @pthread_mutex_lock(ptr noundef nonnull @cache_mutex) #17
  %.not = icmp eq i32 %2, 0
  br i1 %.not, label %5, label %3

3:                                                ; preds = %1
  %4 = tail call ptr @__errno_location() #18
  store i32 %2, ptr %4, align 4
  tail call void (ptr, ...) @fatal_abort(ptr noundef nonnull @.str, ptr noundef nonnull @__func__.bit_cache_init) #19
  unreachable

5:                                                ; preds = %1
  %6 = load i64, ptr @cached_bitstr_len, align 8
  %.not6 = icmp eq i64 %6, 0
  br i1 %.not6, label %8, label %7

7:                                                ; preds = %5
  tail call void (ptr, ...) @fatal_abort(ptr noundef nonnull @.str.1, ptr noundef nonnull @__func__.bit_cache_init) #19
  unreachable

8:                                                ; preds = %5
  store i64 %0, ptr @cached_bitstr_len, align 8
  %9 = tail call i32 @pthread_mutex_unlock(ptr noundef nonnull @cache_mutex) #17
  %.not7 = icmp eq i32 %9, 0
  br i1 %.not7, label %12, label %10

10:                                               ; preds = %8
  %11 = tail call ptr @__errno_location() #18
  store i32 %9, ptr %11, align 4
  tail call void (ptr, ...) @fatal_abort(ptr noundef nonnull @.str.2, ptr noundef nonnull @__func__.bit_cache_init) #19
  unreachable

12:                                               ; preds = %8
  ret void
}